target datalayout = "e-m:e-p270:32:32-p271:32:32-p272:64:64-i64:64-i128:128-f80:128-n8:16:32:64-S128"
target triple = "x86_64-unknown-linux-gnu"

%"class.folly::Optional" = type { %"struct.folly::Optional<proxygen::HTTP3::ErrorCode>::StorageTriviallyDestructible" }
%"struct.folly::Optional<proxygen::HTTP3::ErrorCode>::StorageTriviallyDestructible" = type <{ %union.anon, i8, [7 x i8] }>
%union.anon = type { i64 }
%"class.proxygen::hq::HQFramedCodec" = type { %"class.proxygen::HTTPCodec", i64, i8, ptr, %"struct.proxygen::hq::FrameHeader", i8, i8, i64, i8, [7 x i8], %"class.folly::Optional", i64, %"class.folly::Function" }
%"class.proxygen::HTTPCodec" = type { ptr }
%"struct.proxygen::hq::FrameHeader" = type { i64, i64 }
%"class.folly::Function" = type { %"union.folly::detail::function::Data", ptr, ptr }
%"union.folly::detail::function::Data" = type { ptr, [40 x i8] }
%"struct.proxygen::HTTPPriority" = type { ptr, i64 }

@_ZTVN8proxygen12HTTPPriorityE = linkonce_odr unnamed_addr constant { [4 x ptr] } { [4 x ptr] [ptr null, ptr @_ZTIN8proxygen12HTTPPriorityE, ptr @_ZN8proxygen12HTTPPriorityD2Ev, ptr @_ZN8proxygen12HTTPPriorityD0Ev] }, comdat, align 8

; Function Attrs: mustprogress nounwind uwtable
define linkonce_odr noundef zeroext i1 @_ZNK5folly8OptionalIN8proxygen5HTTP39ErrorCodeEE9has_valueEv(ptr noundef nonnull align 8 dereferenceable(16) %this) #5 comdat align 2 {
entry:
  %this.addr = alloca ptr, align 8
  store ptr %this, ptr %this.addr, align 8
  %this1 = load ptr, ptr %this.addr, align 8
  %storage_ = getelementptr inbounds %"class.folly::Optional", ptr %this1, i32 0, i32 0
  %hasValue = getelementptr inbounds %"struct.folly::Optional<proxygen::HTTP3::ErrorCode>::StorageTriviallyDestructible", ptr %storage_, i32 0, i32 1
  %0 = load i8, ptr %hasValue, align 8
  %tobool = trunc i8 %0 to i1
  ret i1 %tobool
}

; Function Attrs: mustprogress nounwind uwtable
define linkonce_odr void @_ZN8proxygen12HTTPPriorityD2Ev(ptr noundef nonnull align 8 dereferenceable(16) %this) unnamed_addr #5 comdat align 2 {
entry:
  %this.addr = alloca ptr, align 8
  store ptr %this, ptr %this.addr, align 8
  ret void
}

; Function Attrs: mustprogress nounwind uwtable
define linkonce_odr noundef i64 @_ZN5folly2toImRmEENSt9enable_ifIXsr3std7is_sameIT_NSt5decayIT0_E4typeEEE5valueES3_E4typeEOS5_(ptr noundef nonnull align 8 dereferenceable(8) %value) #5 comdat {
entry:
  %value.addr = alloca ptr, align 8
  store ptr %value, ptr %value.addr, align 8
  %0 = load ptr, ptr %value.addr, align 8
  %1 = load i64, ptr %0, align 8
  ret i64 %1
}

; Function Attrs: mustprogress nounwind uwtable
define linkonce_odr noundef zeroext i1 @_ZNK5folly8OptionalIN8proxygen5HTTP39ErrorCodeEEcvbEv(ptr noundef nonnull align 8 dereferenceable(16) %this) #5 comdat align 2 {
entry:
  %this.addr = alloca ptr, align 8
  store ptr %this, ptr %this.addr, align 8
  %this1 = load ptr, ptr %this.addr, align 8
  %call = call noundef zeroext i1 @_ZNK5folly8OptionalIN8proxygen5HTTP39ErrorCodeEE9has_valueEv(ptr noundef nonnull align 8 dereferenceable(16) %this1) #3
  ret i1 %call
}

; Function Attrs: mustprogress nounwind uwtable
define linkonce_odr void @_ZN8proxygen12HTTPPriorityC2Ev(ptr noundef nonnull align 8 dereferenceable(16) %this) unnamed_addr #5 comdat align 2 {
entry:
  %this.addr = alloca ptr, align 8
  store ptr %this, ptr %this.addr, align 8
  %this1 = load ptr, ptr %this.addr, align 8
  store ptr getelementptr inbounds ({ [4 x ptr] }, ptr @_ZTVN8proxygen12HTTPPriorityE, i32 0, i32 0, i32 2), ptr %this1, align 8
  %urgency = getelementptr inbounds %"struct.proxygen::HTTPPriority", ptr %this1, i32 0, i32 1
  %bf.load = load i64, ptr %urgency, align 8
  %bf.clear = and i64 %bf.load, -8
  %bf.set = or i64 %bf.clear, 3
  store i64 %bf.set, ptr %urgency, align 8
  %incremental = getelementptr inbounds %"struct.proxygen::HTTPPriority", ptr %this1, i32 0, i32 1
  %bf.load2 = load i64, ptr %incremental, align 8
  %bf.clear3 = and i64 %bf.load2, -9
  %bf.set4 = or i64 %bf.clear3, 8
  store i64 %bf.set4, ptr %incremental, align 8
  %orderId = getelementptr inbounds %"struct.proxygen::HTTPPriority", ptr %this1, i32 0, i32 1
  %bf.load5 = load i64, ptr %orderId, align 8
  %bf.clear6 = and i64 %bf.load5, -4611686018427387889
  %bf.set7 = or i64 %bf.clear6, 0
  store i64 %bf.set7, ptr %orderId, align 8
  ret void
}

; Function Attrs: mustprogress uwtable
define void @_ZN8proxygen2hq14HQControlCodec19parsePriorityUpdateERN5folly2io6CursorERKNS0_11FrameHeaderE(ptr noalias sret(%"class.folly::Optional") align 8 %agg.result, ptr noundef nonnull align 16 dereferenceable(232) %this, ptr noundef nonnull align 8 dereferenceable(56) %cursor, ptr noundef nonnull align 8 dereferenceable(16) %header) unnamed_addr #4 align 2 personality ptr @__gxx_personality_v0 {
entry:
  %result.ptr = alloca ptr, align 8
  %this.addr = alloca ptr, align 8
  %cursor.addr = alloca ptr, align 8
  %header.addr = alloca ptr, align 8
  %prioritizedElement = alloca i64, align 8
  %priorityUpdate = alloca %"struct.proxygen::HTTPPriority", align 8
  %exn.slot = alloca ptr, align 8
  %ehselector.slot = alloca i32, align 4
  store ptr %agg.result, ptr %result.ptr, align 8
  store ptr %this, ptr %this.addr, align 8
  store ptr %cursor, ptr %cursor.addr, align 8
  store ptr %header, ptr %header.addr, align 8
  %this1 = load ptr, ptr %this.addr, align 8
  call void @_ZN8proxygen12HTTPPriorityC2Ev(ptr noundef nonnull align 8 dereferenceable(16) %priorityUpdate)
  %0 = load ptr, ptr %cursor.addr, align 8
  %1 = load ptr, ptr %header.addr, align 8
  call void @_ZN8proxygen2hq19parsePriorityUpdateERN5folly2io6CursorERKNS0_11FrameHeaderERmRNS_12HTTPPriorityE(ptr sret(%"class.folly::Optional") align 8 %agg.result, ptr noundef nonnull align 8 dereferenceable(56) %0, ptr noundef nonnull align 8 dereferenceable(16) %1, ptr noundef nonnull align 8 dereferenceable(8) %prioritizedElement, ptr noundef nonnull align 8 dereferenceable(16) %priorityUpdate) #3
  %call = call noundef zeroext i1 @_ZNK5folly8OptionalIN8proxygen5HTTP39ErrorCodeEEcvbEv(ptr noundef nonnull align 8 dereferenceable(16) %agg.result) #3
  br i1 %call, label %if.end, label %if.then

if.then:                                          ; preds = %entry
  %add.ptr = getelementptr inbounds i8, ptr %this1, i64 32
  %callback_ = getelementptr inbounds %"class.proxygen::hq::HQFramedCodec", ptr %add.ptr, i32 0, i32 3
  %2 = load ptr, ptr %callback_, align 8
  %call2 = invoke noundef i64 @_ZN5folly2toImRmEENSt9enable_ifIXsr3std7is_sameIT_NSt5decayIT0_E4typeEEE5valueES3_E4typeEOS5_(ptr noundef nonnull align 8 dereferenceable(8) %prioritizedElement)
          to label %invoke.cont unwind label %lpad

invoke.cont:                                      ; preds = %if.then
  %vtable = load ptr, ptr %2, align 8
  %vfn = getelementptr inbounds ptr, ptr %vtable, i64 20
  %3 = load ptr, ptr %vfn, align 8
  invoke void %3(ptr noundef nonnull align 8 dereferenceable(8) %2, i64 noundef %call2, ptr noundef nonnull align 8 dereferenceable(16) %priorityUpdate)
          to label %invoke.cont3 unwind label %lpad

invoke.cont3:                                     ; preds = %invoke.cont
  br label %if.end

lpad:                                             ; preds = %invoke.cont, %if.then
  %4 = landingpad { ptr, i32 }
          cleanup
  %5 = extractvalue { ptr, i32 } %4, 0
  store ptr %5, ptr %exn.slot, align 8
  %6 = extractvalue { ptr, i32 } %4, 1
  store i32 %6, ptr %ehselector.slot, align 4
  call void @_ZN8proxygen12HTTPPriorityD2Ev(ptr noundef nonnull align 8 dereferenceable(16) %priorityUpdate) #3
  br label %eh.resume

if.end:                                           ; preds = %invoke.cont3, %entry
  call void @_ZN8proxygen12HTTPPriorityD2Ev(ptr noundef nonnull align 8 dereferenceable(16) %priorityUpdate) #3
  ret void

eh.resume:                                        ; preds = %lpad
  %exn = load ptr, ptr %exn.slot, align 8
  %sel = load i32, ptr %ehselector.slot, align 4
  %lpad.val = insertvalue { ptr, i32 } poison, ptr %exn, 0
  %lpad.val4 = insertvalue { ptr, i32 } %lpad.val, i32 %sel, 1
  resume { ptr, i32 } %lpad.val4
}